target datalayout = "e-m:e-p270:32:32-p271:32:32-p272:64:64-i64:64-i128:128-f80:128-n8:16:32:64-S128"
target triple = "x86_64-pc-linux-gnu"

%"class.std::__shared_count" = type { ptr }
%"class.std::shared_ptr.22" = type { %"class.std::__shared_ptr.23" }
%"class.std::__shared_ptr.23" = type { ptr, %"class.std::__shared_count" }
%struct.rocksdb_block_based_table_options_t = type { %"struct.rocksdb::BlockBasedTableOptions" }
%"struct.rocksdb::BlockBasedTableOptions" = type { %"class.std::shared_ptr.191", i8, i8, i8, i8, %"struct.rocksdb::MetadataCacheOptions", i8, i8, double, i8, i8, %"class.std::shared_ptr.22", %"class.std::shared_ptr.194", i64, i32, i32, i32, i64, %"struct.rocksdb::CacheUsageOptions", i8, i8, i8, i8, %"class.std::shared_ptr.200", i8, i8, i8, i32, i32, i8, i8, i8, i64, i8, i64, i64 }
%"class.std::shared_ptr.191" = type { %"class.std::__shared_ptr.192" }
%"class.std::__shared_ptr.192" = type { ptr, %"class.std::__shared_count" }
%"struct.rocksdb::MetadataCacheOptions" = type { i32, i32, i32 }
%"class.std::shared_ptr.194" = type { %"class.std::__shared_ptr.195" }
%"class.std::__shared_ptr.195" = type { ptr, %"class.std::__shared_count" }
%"struct.rocksdb::CacheUsageOptions" = type { %"struct.rocksdb::CacheEntryRoleOptions", %"class.std::map" }
%"struct.rocksdb::CacheEntryRoleOptions" = type { i32 }
%"class.std::map" = type { %"class.std::_Rb_tree" }
%"class.std::_Rb_tree" = type { %"struct.std::_Rb_tree<rocksdb::CacheEntryRole, std::pair<const rocksdb::CacheEntryRole, rocksdb::CacheEntryRoleOptions>, std::_Select1st<std::pair<const rocksdb::CacheEntryRole, rocksdb::CacheEntryRoleOptions>>, std::less<rocksdb::CacheEntryRole>>::_Rb_tree_impl" }
%"struct.std::_Rb_tree<rocksdb::CacheEntryRole, std::pair<const rocksdb::CacheEntryRole, rocksdb::CacheEntryRoleOptions>, std::_Select1st<std::pair<const rocksdb::CacheEntryRole, rocksdb::CacheEntryRoleOptions>>, std::less<rocksdb::CacheEntryRole>>::_Rb_tree_impl" = type { [8 x i8], %"struct.std::_Rb_tree_header" }
%"struct.std::_Rb_tree_header" = type { %"struct.std::_Rb_tree_node_base", i64 }
%"struct.std::_Rb_tree_node_base" = type { i32, ptr, ptr, ptr }
%"class.std::shared_ptr.200" = type { %"class.std::__shared_ptr.201" }
%"class.std::__shared_ptr.201" = type { ptr, %"class.std::__shared_count" }

; Function Attrs: inlinehint mustprogress nounwind uwtable
define linkonce_odr void @_ZN35rocksdb_block_based_table_options_tD2Ev(ptr noundef nonnull align 8 dereferenceable(248) %0) unnamed_addr #5 comdat align 2 {
  %2 = alloca ptr, align 8
  store ptr %0, ptr %2, align 8, !tbaa !488
  %3 = load ptr, ptr %2, align 8
  %4 = getelementptr inbounds nuw %struct.rocksdb_block_based_table_options_t, ptr %3, i32 0, i32 0
  call void @_ZN7rocksdb22BlockBasedTableOptionsD2Ev(ptr noundef nonnull align 8 dereferenceable(248) %4) #24
  ret void
}

; Function Attrs: mustprogress nounwind uwtable
define void @rocksdb_block_based_options_destroy(ptr noundef %0) #2 {
  %2 = alloca ptr, align 8
  store ptr %0, ptr %2, align 8, !tbaa !488
  %3 = load ptr, ptr %2, align 8, !tbaa !488
  %4 = icmp eq ptr %3, null
  br i1 %4, label %6, label %5

5:                                                ; preds = %1
  call void @_ZN35rocksdb_block_based_table_options_tD2Ev(ptr noundef nonnull align 8 dereferenceable(248) %3) #24
  call void @_ZdlPvm(ptr noundef %3, i64 noundef 248) #28
  br label %6

6:                                                ; preds = %5, %1
  ret void
}